; Function Attrs: mustprogress nofree nounwind willreturn memory(argmem: read) uwtable
define dso_local noundef zeroext i1 @_Z18isImportDescriptorN4llvm9StringRefE(ptr readonly captures(none) %0, i64 %1) local_unnamed_addr #4 {
  %.not.i = icmp ult i64 %1, 20
  br i1 %.not.i, label %6, label %_ZNK4llvm9StringRef11starts_withES0_.exit

_ZNK4llvm9StringRef11starts_withES0_.exit:        ; preds = %2
  %bcmp.i = tail call i32 @bcmp(ptr noundef nonnull dereferenceable(20) %0, ptr noundef nonnull dereferenceable(20) @.str.10, i64 20)
  %3 = icmp eq i32 %bcmp.i, 0
  br i1 %3, label %_ZNK4llvm9StringRef9ends_withES0_.exit, label %4

4:                                                ; preds = %_ZNK4llvm9StringRef11starts_withES0_.exit
  %.not.i9 = icmp eq i64 %1, 24
  br i1 %.not.i9, label %_ZN4llvmeqENS_9StringRefES0_.exit, label %_ZNK4llvm9StringRef11starts_withES0_.exit13

_ZN4llvmeqENS_9StringRefES0_.exit:                ; preds = %4
  %bcmp.i10 = tail call i32 @bcmp(ptr noundef nonnull dereferenceable(24) %0, ptr noundef nonnull dereferenceable(24) @.str.11, i64 24)
  %5 = icmp eq i32 %bcmp.i10, 0
  br i1 %5, label %_ZNK4llvm9StringRef9ends_withES0_.exit, label %_ZNK4llvm9StringRef11starts_withES0_.exit13.thread34

6:                                                ; preds = %2
  %.not.i11 = icmp eq i64 %1, 0
  br i1 %.not.i11, label %_ZNK4llvm9StringRef9ends_withES0_.exit, label %_ZNK4llvm9StringRef11starts_withES0_.exit13

_ZNK4llvm9StringRef11starts_withES0_.exit13:      ; preds = %4, %6
  %lhsc38 = load i8, ptr %0, align 1
  %7 = icmp ne i8 %lhsc38, 127
  %.not.i14 = icmp ult i64 %1, 16
  %or.cond = or i1 %.not.i14, %7
  br i1 %or.cond, label %_ZNK4llvm9StringRef9ends_withES0_.exit, label %.thread36

_ZNK4llvm9StringRef11starts_withES0_.exit13.thread34: ; preds = %_ZN4llvmeqENS_9StringRefES0_.exit
  %lhsc = load i8, ptr %0, align 1
  %8 = icmp eq i8 %lhsc, 127
  br i1 %8, label %.thread36, label %_ZNK4llvm9StringRef9ends_withES0_.exit

.thread36:                                        ; preds = %_ZNK4llvm9StringRef11starts_withES0_.exit13, %_ZNK4llvm9StringRef11starts_withES0_.exit13.thread34
  %9 = getelementptr inbounds i8, ptr %0, i64 %1
  %10 = getelementptr inbounds i8, ptr %9, i64 -16
  %bcmp.i15 = tail call i32 @bcmp(ptr noundef nonnull dereferenceable(16) %10, ptr noundef nonnull dereferenceable(16) @.str.13, i64 16)
  %11 = icmp eq i32 %bcmp.i15, 0
  br label %_ZNK4llvm9StringRef9ends_withES0_.exit

_ZNK4llvm9StringRef9ends_withES0_.exit:           ; preds = %6, %.thread36, %_ZNK4llvm9StringRef11starts_withES0_.exit13.thread34, %_ZNK4llvm9StringRef11starts_withES0_.exit13, %_ZN4llvmeqENS_9StringRefES0_.exit, %_ZNK4llvm9StringRef11starts_withES0_.exit
  %12 = phi i1 [ true, %_ZN4llvmeqENS_9StringRefES0_.exit ], [ true, %_ZNK4llvm9StringRef11starts_withES0_.exit ], [ false, %_ZNK4llvm9StringRef11starts_withES0_.exit13 ], [ false, %_ZNK4llvm9StringRef11starts_withES0_.exit13.thread34 ], [ %11, %.thread36 ], [ false, %6 ]
  ret i1 %12
}